target datalayout = "e-m:e-p270:32:32-p271:32:32-p272:64:64-i64:64-i128:128-f80:128-n8:16:32:64-S128"
target triple = "x86_64-pc-linux-gnu"

%union.UElement = type { ptr }
%struct.UHashElement = type { i32, %union.UElement, %union.UElement }
%"class.icu_77::Hashtable" = type { ptr, %struct.UHashtable }
%struct.UHashtable = type { ptr, ptr, ptr, ptr, ptr, ptr, i32, i32, i32, i32, float, float, i8, i8 }

; Function Attrs: inlinehint mustprogress nounwind uwtable
define linkonce_odr void @_ZN6icu_779HashtableD2Ev(ptr noundef nonnull align 8 dereferenceable(88) %0) unnamed_addr #2 comdat align 2 personality ptr @__gxx_personality_v0 {
  %2 = alloca ptr, align 8
  store ptr %0, ptr %2, align 8, !tbaa !31
  %3 = load ptr, ptr %2, align 8
  %4 = getelementptr inbounds nuw %"class.icu_77::Hashtable", ptr %3, i32 0, i32 0
  %5 = load ptr, ptr %4, align 8, !tbaa !61
  %6 = icmp ne ptr %5, null
  br i1 %6, label %7, label %11

7:                                                ; preds = %1
  %8 = getelementptr inbounds nuw %"class.icu_77::Hashtable", ptr %3, i32 0, i32 0
  %9 = load ptr, ptr %8, align 8, !tbaa !61
  invoke void @uhash_close_77(ptr noundef %9)
          to label %10 unwind label %12

10:                                               ; preds = %7
  br label %11

11:                                               ; preds = %10, %1
  ret void

12:                                               ; preds = %7
  %13 = landingpad { ptr, i32 }
          catch ptr null
  %14 = extractvalue { ptr, i32 } %13, 0
  call void @__clang_call_terminate(ptr %14) #13
  unreachable
}

; Function Attrs: inlinehint mustprogress uwtable
define linkonce_odr noundef ptr @_ZNK6icu_779Hashtable11nextElementERi(ptr noundef nonnull align 8 dereferenceable(88) %0, ptr noundef nonnull align 4 dereferenceable(4) %1) #3 comdat align 2 {
  %3 = alloca ptr, align 8
  %4 = alloca ptr, align 8
  store ptr %0, ptr %3, align 8, !tbaa !31
  store ptr %1, ptr %4, align 8, !tbaa !20
  %5 = load ptr, ptr %3, align 8
  %6 = getelementptr inbounds nuw %"class.icu_77::Hashtable", ptr %5, i32 0, i32 0
  %7 = load ptr, ptr %6, align 8, !tbaa !61
  %8 = load ptr, ptr %4, align 8, !tbaa !20
  %9 = call ptr @uhash_nextElement_77(ptr noundef %7, ptr noundef %8)
  ret ptr %9
}

; Function Attrs: mustprogress uwtable
define void @_ZN6icu_7714TimeUnitFormat10deleteHashEPNS_9HashtableE(ptr noundef nonnull align 8 dereferenceable(124) %0, ptr noundef %1) #1 align 2 {
  %3 = alloca ptr, align 8
  %4 = alloca ptr, align 8
  %5 = alloca i32, align 4
  %6 = alloca ptr, align 8
  %7 = alloca %union.UElement, align 8
  %8 = alloca ptr, align 8
  store ptr %0, ptr %3, align 8, !tbaa !23
  store ptr %1, ptr %4, align 8, !tbaa !31
  call void @llvm.lifetime.start.p0(i64 4, ptr %5) #11
  store i32 -1, ptr %5, align 4, !tbaa !14
  call void @llvm.lifetime.start.p0(i64 8, ptr %6) #11
  store ptr null, ptr %6, align 8, !tbaa !49
  %9 = load ptr, ptr %4, align 8, !tbaa !31
  %10 = icmp ne ptr %9, null
  br i1 %10, label %11, label %40

11:                                               ; preds = %2
  br label %12

12:                                               ; preds = %37, %11
  %13 = load ptr, ptr %4, align 8, !tbaa !31
  %14 = call noundef ptr @_ZNK6icu_779Hashtable11nextElementERi(ptr noundef nonnull align 8 dereferenceable(88) %13, ptr noundef nonnull align 4 dereferenceable(4) %5)
  store ptr %14, ptr %6, align 8, !tbaa !49
  %15 = icmp ne ptr %14, null
  br i1 %15, label %16, label %39

16:                                               ; preds = %12
  call void @llvm.lifetime.start.p0(i64 8, ptr %7) #11
  %17 = load ptr, ptr %6, align 8, !tbaa !49
  %18 = getelementptr inbounds nuw %struct.UHashElement, ptr %17, i32 0, i32 1
  call void @llvm.memcpy.p0.p0.i64(ptr align 8 %7, ptr align 8 %18, i64 8, i1 false), !tbaa.struct !51
  call void @llvm.lifetime.start.p0(i64 8, ptr %8) #11
  %19 = load ptr, ptr %7, align 8, !tbaa !52
  store ptr %19, ptr %8, align 8, !tbaa !55
  %20 = load ptr, ptr %8, align 8, !tbaa !55
  %21 = getelementptr inbounds nuw ptr, ptr %20, i64 0
  %22 = load ptr, ptr %21, align 8, !tbaa !58
  %23 = icmp eq ptr %22, null
  br i1 %23, label %28, label %24

24:                                               ; preds = %16
  %25 = load ptr, ptr %22, align 8, !tbaa !25
  %26 = getelementptr inbounds ptr, ptr %25, i64 1
  %27 = load ptr, ptr %26, align 8
  call void %27(ptr noundef nonnull align 8 dereferenceable(512) %22) #11
  br label %28

28:                                               ; preds = %24, %16
  %29 = load ptr, ptr %8, align 8, !tbaa !55
  %30 = getelementptr inbounds nuw ptr, ptr %29, i64 1
  %31 = load ptr, ptr %30, align 8, !tbaa !58
  %32 = icmp eq ptr %31, null
  br i1 %32, label %37, label %33

33:                                               ; preds = %28
  %34 = load ptr, ptr %31, align 8, !tbaa !25
  %35 = getelementptr inbounds ptr, ptr %34, i64 1
  %36 = load ptr, ptr %35, align 8
  call void %36(ptr noundef nonnull align 8 dereferenceable(512) %31) #11
  br label %37

37:                                               ; preds = %33, %28
  %38 = load ptr, ptr %8, align 8, !tbaa !55
  call void @uprv_free_77(ptr noundef %38)
  call void @llvm.lifetime.end.p0(i64 8, ptr %8) #11
  call void @llvm.lifetime.end.p0(i64 8, ptr %7) #11
  br label %12, !llvm.loop !67

39:                                               ; preds = %12
  br label %40

40:                                               ; preds = %39, %2
  %41 = load ptr, ptr %4, align 8, !tbaa !31
  %42 = icmp eq ptr %41, null
  br i1 %42, label %44, label %43

43:                                               ; preds = %40
  call void @_ZN6icu_779HashtableD2Ev(ptr noundef nonnull align 8 dereferenceable(88) %41) #11
  call void @_ZN6icu_777UMemorydlEPv(ptr noundef %41) #11
  br label %44

44:                                               ; preds = %43, %40
  call void @llvm.lifetime.end.p0(i64 8, ptr %6) #11
  call void @llvm.lifetime.end.p0(i64 4, ptr %5) #11
  ret void
}