; Function Attrs: mustprogress uwtable
define void @_ZN6icu_7714TimeUnitFormat10deleteHashEPNS_9HashtableE(ptr nonnull readnone align 8 captures(none) %0, ptr noundef %1) local_unnamed_addr #1 align 2 personality ptr @__gxx_personality_v0 {
  %3 = alloca i32, align 4
  call void @llvm.lifetime.start.p0(i64 4, ptr nonnull %3) #16
  store i32 -1, ptr %3, align 4, !tbaa !12
  %cond = icmp eq ptr %1, null
  br i1 %cond, label %30, label %.preheader

.preheader:                                       ; preds = %2
  %4 = load ptr, ptr %1, align 8, !tbaa !31
  %5 = call noundef ptr @uhash_nextElement_77(ptr noundef %4, ptr noundef nonnull align 4 dereferenceable(4) %3)
  %.not1011 = icmp eq ptr %5, null
  br i1 %.not1011, label %._crit_edge, label %.lr.ph

.lr.ph:                                           ; preds = %.preheader, %22
  %6 = phi ptr [ %24, %22 ], [ %5, %.preheader ]
  %7 = getelementptr inbounds nuw i8, ptr %6, i64 8
  %.sroa.0.0.copyload = load ptr, ptr %7, align 8, !tbaa !39
  %8 = load ptr, ptr %.sroa.0.0.copyload, align 8, !tbaa !40
  %9 = icmp eq ptr %8, null
  br i1 %9, label %14, label %10

10:                                               ; preds = %.lr.ph
  %11 = load ptr, ptr %8, align 8, !tbaa !15
  %12 = getelementptr inbounds nuw i8, ptr %11, i64 8
  %13 = load ptr, ptr %12, align 8
  call void %13(ptr noundef nonnull align 8 dereferenceable(512) %8) #16
  br label %14

14:                                               ; preds = %10, %.lr.ph
  %15 = getelementptr inbounds nuw i8, ptr %.sroa.0.0.copyload, i64 8
  %16 = load ptr, ptr %15, align 8, !tbaa !40
  %17 = icmp eq ptr %16, null
  br i1 %17, label %22, label %18

18:                                               ; preds = %14
  %19 = load ptr, ptr %16, align 8, !tbaa !15
  %20 = getelementptr inbounds nuw i8, ptr %19, i64 8
  %21 = load ptr, ptr %20, align 8
  call void %21(ptr noundef nonnull align 8 dereferenceable(512) %16) #16
  br label %22

22:                                               ; preds = %18, %14
  call void @uprv_free_77(ptr noundef nonnull %.sroa.0.0.copyload)
  %23 = load ptr, ptr %1, align 8, !tbaa !31
  %24 = call noundef ptr @uhash_nextElement_77(ptr noundef %23, ptr noundef nonnull align 4 dereferenceable(4) %3)
  %.not10 = icmp eq ptr %24, null
  br i1 %.not10, label %._crit_edge, label %.lr.ph, !llvm.loop !44

._crit_edge:                                      ; preds = %22, %.preheader
  %25 = load ptr, ptr %1, align 8, !tbaa !31
  %.not.i = icmp eq ptr %25, null
  br i1 %.not.i, label %_ZN6icu_779HashtableD2Ev.exit, label %26

26:                                               ; preds = %._crit_edge
  invoke void @uhash_close_77(ptr noundef nonnull %25)
          to label %_ZN6icu_779HashtableD2Ev.exit unwind label %27

27:                                               ; preds = %26
  %28 = landingpad { ptr, i32 }
          catch ptr null
  %29 = extractvalue { ptr, i32 } %28, 0
  call void @__clang_call_terminate(ptr %29) #18
  unreachable

_ZN6icu_779HashtableD2Ev.exit:                    ; preds = %._crit_edge, %26
  call void @_ZN6icu_777UMemorydlEPv(ptr noundef nonnull %1) #16
  br label %30

30:                                               ; preds = %2, %_ZN6icu_779HashtableD2Ev.exit
  call void @llvm.lifetime.end.p0(i64 4, ptr nonnull %3) #16
  ret void
}